Certificate:
    Data:
        Version: 3 (0x2)
        Serial Number: 2 (0x2)
    Signature Algorithm: sha256WithRSAEncryption
        Issuer: C=IN, ST=TN, L=Chennai, O=Calsoftlabs, OU=NFVO, CN=Calsoftlabs CA/name=EasyRSA/emailAddress=nfvo@calsoftlabs.com
        Validity
            Not Before: Jul  1 08:03:43 2014 GMT
            Not After : Jun 28 08:03:43 2024 GMT
        Subject: C=IN, ST=TN, L=Chennai, O=Calsoftlabs, OU=NFVO, CN=client1/name=EasyRSA/emailAddress=nfvo@calsoftlabs.com
        Subject Public Key Info:
            Public Key Algorithm: rsaEncryption
                Public-Key: (2048 bit)
                Modulus:
                    00:bc:85:4d:34:43:2c:73:44:28:0d:50:83:12:21:
                    3f:30:0d:fd:f8:c1:ea:be:d2:c7:7e:e0:34:3c:90:
                    38:6e:a7:43:90:d8:de:84:be:8d:92:a7:7f:bc:d1:
                    cf:ad:a4:92:b7:42:b2:4c:a5:41:bc:a3:5a:a5:79:
                    f1:f0:29:e5:ab:ec:aa:98:4a:8b:ea:4b:88:1f:d5:
                    c3:e1:20:5e:ef:a2:35:aa:81:db:3e:1d:6a:90:ec:
                    ed:bb:33:55:34:e5:01:70:fe:38:d0:a6:41:7b:06:
                    40:99:ff:13:2d:c1:06:d6:7f:7f:94:c0:8d:ac:e8:
                    89:e6:4f:e8:a7:52:6e:f4:59:2e:02:ad:5f:33:a3:
                    15:ae:96:24:b3:6d:fb:c4:81:20:af:36:8e:3a:49:
                    39:33:ec:70:1e:97:5c:d4:9e:74:85:57:ae:a3:77:
                    c8:8f:2c:c5:12:aa:7d:79:d6:f9:a6:d1:38:8b:88:
                    dc:3f:b3:2e:f5:17:b1:e0:af:69:35:d3:22:4c:dc:
                    aa:ac:ce:ac:97:7b:2f:48:90:3c:28:d5:56:9f:38:
                    0e:11:10:cf:f5:47:54:47:ce:61:6e:d6:89:67:a6:
                    d2:7a:e2:8d:d8:01:17:b9:0a:fb:bb:23:ca:b7:36:
                    e4:d1:b2:1c:09:98:1d:2a:7f:9f:09:a1:fe:42:0a:
                    94:23
                Exponent: 65537 (0x10001)
        X509v3 extensions:
            X509v3 Basic Constraints: 
                CA:FALSE
            Netscape Comment: 
                Easy-RSA Generated Certificate
            X509v3 Subject Key Identifier: 
                05:73:6C:E7:68:05:DE:24:40:06:74:C2:0B:15:10:3A:04:7C:7E:C0
            X509v3 Authority Key Identifier: 
                keyid:BB:31:AE:24:80:30:3A:40:53:DB:C3:68:BD:96:E0:89:9F:C7:06:8E
                DirName:/C=IN/ST=TN/L=Chennai/O=Calsoftlabs/OU=NFVO/CN=Calsoftlabs CA/name=EasyRSA/emailAddress=nfvo@calsoftlabs.com
                serial:81:B0:A3:63:6C:27:90:6C

            X509v3 Extended Key Usage: 
                TLS Web Client Authentication
            X509v3 Key Usage: 
                Digital Signature
    Signature Algorithm: sha256WithRSAEncryption
         80:64:45:b4:3e:76:89:f7:2c:3f:35:60:3b:06:be:b9:89:a0:
         ca:c7:de:6e:28:99:f3:c1:a0:b7:47:33:0a:17:76:c9:f7:10:
         4c:27:2a:f5:f5:03:10:16:f9:07:3b:99:52:a4:a1:b3:9c:e0:
         db:ba:27:12:6b:17:b3:6f:39:3a:b9:0b:1f:27:57:c5:5f:64:
         21:3a:7c:73:4f:74:06:8a:75:f1:36:ca:9b:17:91:94:c4:9a:
         93:de:d0:fd:29:71:cd:a8:70:63:ab:eb:19:a8:d7:a8:a9:48:
         13:d8:cb:d1:96:ba:08:da:36:3a:1d:74:d6:1c:58:48:ae:26:
         ff:66:a4:da:dd:52:ad:a7:7d:32:8d:fe:2a:31:74:57:c8:50:
         d6:05:fd:6b:b0:6d:1f:84:a6:4a:9b:b2:73:84:8d:d4:75:ca:
         df:9a:2e:f4:a4:91:bb:42:28:1e:36:7f:59:08:16:e9:29:fa:
         6e:d3:9d:27:d4:d1:4c:64:22:24:98:4c:81:83:1c:ef:15:38:
         e0:5c:b2:b6:6d:65:41:5e:0a:4e:fb:fa:68:02:3d:c5:c0:4a:
         c6:30:2f:66:41:ff:1b:2f:5f:db:a2:48:3c:5a:b9:f6:51:93:
         29:53:5c:98:05:91:ae:8c:f8:e2:9e:7f:a6:35:e3:0c:ca:c0:
         dd:08:8c:69
-----BEGIN CERTIFICATE-----
MIIFEjCCA/qgAwIBAgIBAjANBgkqhkiG9w0BAQsFADCBoTELMAkGA1UEBhMCSU4x
CzAJBgNVBAgTAlROMRAwDgYDVQQHEwdDaGVubmFpMRQwEgYDVQQKEwtDYWxzb2Z0
bGFiczENMAsGA1UECxMETkZWTzEXMBUGA1UEAxMOQ2Fsc29mdGxhYnMgQ0ExEDAO
BgNVBCkTB0Vhc3lSU0ExIzAhBgkqhkiG9w0BCQEWFG5mdm9AY2Fsc29mdGxhYnMu
Y29tMB4XDTE0MDcwMTA4MDM0M1oXDTI0MDYyODA4MDM0M1owgZoxCzAJBgNVBAYT
AklOMQswCQYDVQQIEwJUTjEQMA4GA1UEBxMHQ2hlbm5haTEUMBIGA1UEChMLQ2Fs
c29mdGxhYnMxDTALBgNVBAsTBE5GVk8xEDAOBgNVBAMTB2NsaWVudDExEDAOBgNV
BCkTB0Vhc3lSU0ExIzAhBgkqhkiG9w0BCQEWFG5mdm9AY2Fsc29mdGxhYnMuY29t
MIIBIjANBgkqhkiG9w0BAQEFAAOCAQ8AMIIBCgKCAQEAvIVNNEMsc0QoDVCDEiE/
MA39+MHqvtLHfuA0PJA4bqdDkNjehL6Nkqd/vNHPraSSt0KyTKVBvKNapXnx8Cnl
q+yqmEqL6kuIH9XD4SBe76I1qoHbPh1qkOztuzNVNOUBcP440KZBewZAmf8TLcEG
1n9/lMCNrOiJ5k/op1Ju9FkuAq1fM6MVrpYks237xIEgrzaOOkk5M+xwHpdc1J50
hVeuo3fIjyzFEqp9edb5ptE4i4jcP7Mu9Rex4K9pNdMiTNyqrM6sl3svSJA8KNVW
nzgOERDP9UdUR85hbtaJZ6bSeuKN2AEXuQr7uyPKtzbk0bIcCZgdKn+fCaH+QgqU
IwIDAQABo4IBWDCCAVQwCQYDVR0TBAIwADAtBglghkgBhvhCAQ0EIBYeRWFzeS1S
U0EgR2VuZXJhdGVkIENlcnRpZmljYXRlMB0GA1UdDgQWBBQFc2znaAXeJEAGdMIL
FRA6BHx+wDCB1gYDVR0jBIHOMIHLgBS7Ma4kgDA6QFPbw2i9luCJn8cGjqGBp6SB
pDCBoTELMAkGA1UEBhMCSU4xCzAJBgNVBAgTAlROMRAwDgYDVQQHEwdDaGVubmFp
MRQwEgYDVQQKEwtDYWxzb2Z0bGFiczENMAsGA1UECxMETkZWTzEXMBUGA1UEAxMO
Q2Fsc29mdGxhYnMgQ0ExEDAOBgNVBCkTB0Vhc3lSU0ExIzAhBgkqhkiG9w0BCQEW
FG5mdm9AY2Fsc29mdGxhYnMuY29tggkAgbCjY2wnkGwwEwYDVR0lBAwwCgYIKwYB
BQUHAwIwCwYDVR0PBAQDAgeAMA0GCSqGSIb3DQEBCwUAA4IBAQCAZEW0PnaJ9yw/
NWA7Br65iaDKx95uKJnzwaC3RzMKF3bJ9xBMJyr19QMQFvkHO5lSpKGznODbuicS
axezbzk6uQsfJ1fFX2QhOnxzT3QGinXxNsqbF5GUxJqT3tD9KXHNqHBjq+sZqNeo
qUgT2MvRlroI2jY6HXTWHFhIrib/ZqTa3VKtp30yjf4qMXRXyFDWBf1rsG0fhKZK
m7JzhI3Udcrfmi70pJG7QigeNn9ZCBbpKfpu050n1NFMZCIkmEyBgxzvFTjgXLK2
bWVBXgpO+/poAj3FwErGMC9mQf8bL1/bokg8Wrn2UZMpU1yYBZGujPjinn+mNeMM
ysDdCIxp
-----END CERTIFICATE-----
